; ModuleID = 'bench/linux/original/fib6_notifier.ll'
source_filename = "bench/linux/original/fib6_notifier.ll"
target datalayout = "e-m:e-p270:32:32-p271:32:32-p272:64:64-i64:64-i128:128-f80:128-n8:16:32:64-S128"
target triple = "x86_64-unknown-linux-gnu"

%struct.fib_notifier_ops = type { i32, %struct.list_head, ptr, ptr, ptr, %struct.callback_head }
%struct.list_head = type { ptr, ptr }
%struct.callback_head = type { ptr, ptr }

@fib6_notifier_ops_template = internal constant %struct.fib_notifier_ops { i32 10, %struct.list_head zeroinitializer, ptr @fib6_seq_read, ptr @fib6_dump, ptr null, %struct.callback_head zeroinitializer }, align 8

; Function Attrs: fn_ret_thunk_extern nounwind null_pointer_is_valid
define dso_local i32 @call_fib6_notifier(ptr noundef %0, i32 noundef %1, ptr noundef %2) local_unnamed_addr #0 align 16 {
  store i32 10, ptr %2, align 8
  %4 = tail call i32 @call_fib_notifier(ptr noundef %0, i32 noundef %1, ptr noundef %2) #2
  ret i32 %4
}

; Function Attrs: null_pointer_is_valid
declare dso_local i32 @call_fib_notifier(ptr noundef, i32 noundef, ptr noundef) local_unnamed_addr #1

; Function Attrs: fn_ret_thunk_extern nounwind null_pointer_is_valid
define dso_local i32 @call_fib6_notifiers(ptr noundef %0, i32 noundef %1, ptr noundef %2) local_unnamed_addr #0 align 16 {
  store i32 10, ptr %2, align 8
  %4 = tail call i32 @call_fib_notifiers(ptr noundef %0, i32 noundef %1, ptr noundef %2) #2
  ret i32 %4
}

; Function Attrs: null_pointer_is_valid
declare dso_local i32 @call_fib_notifiers(ptr noundef, i32 noundef, ptr noundef) local_unnamed_addr #1

; Function Attrs: fn_ret_thunk_extern nounwind null_pointer_is_valid
define dso_local i32 @fib6_notifier_init(ptr noundef %0) local_unnamed_addr #0 align 16 {
  %2 = tail call ptr @fib_notifier_ops_register(ptr noundef nonnull @fib6_notifier_ops_template, ptr noundef %0) #2
  %3 = icmp ugt ptr %2, inttoptr (i64 -4096 to ptr)
  br i1 %3, label %4, label %7

4:                                                ; preds = %1
  %5 = ptrtoint ptr %2 to i64
  %6 = trunc i64 %5 to i32
  br label %9

7:                                                ; preds = %1
  %8 = getelementptr inbounds i8, ptr %0, i64 2160
  store ptr %2, ptr %8, align 16
  br label %9

9:                                                ; preds = %7, %4
  %10 = phi i32 [ %6, %4 ], [ 0, %7 ]
  ret i32 %10
}

; Function Attrs: null_pointer_is_valid
declare dso_local ptr @fib_notifier_ops_register(ptr noundef, ptr noundef) local_unnamed_addr #1

; Function Attrs: fn_ret_thunk_extern nounwind null_pointer_is_valid
define dso_local void @fib6_notifier_exit(ptr nocapture noundef readonly %0) local_unnamed_addr #0 align 16 {
  %2 = getelementptr inbounds i8, ptr %0, i64 2160
  %3 = load ptr, ptr %2, align 16
  tail call void @fib_notifier_ops_unregister(ptr noundef %3) #2
  ret void
}

; Function Attrs: null_pointer_is_valid
declare dso_local void @fib_notifier_ops_unregister(ptr noundef) local_unnamed_addr #1

; Function Attrs: fn_ret_thunk_extern nounwind null_pointer_is_valid
define internal i32 @fib6_seq_read(ptr noundef %0) #0 align 16 {
  %2 = tail call i32 @fib6_tables_seq_read(ptr noundef %0) #2
  ret i32 %2
}

; Function Attrs: fn_ret_thunk_extern nounwind null_pointer_is_valid
define internal i32 @fib6_dump(ptr noundef %0, ptr noundef %1, ptr noundef %2) #0 align 16 {
  %4 = tail call i32 @fib6_tables_dump(ptr noundef %0, ptr noundef %1, ptr noundef %2) #2
  ret i32 %4
}

; Function Attrs: null_pointer_is_valid
declare dso_local i32 @fib6_tables_seq_read(ptr noundef) local_unnamed_addr #1

; Function Attrs: null_pointer_is_valid
declare dso_local i32 @fib6_tables_dump(ptr noundef, ptr noundef, ptr noundef) local_unnamed_addr #1


!llvm.module.flags = !{!0, !1, !2, !3, !4}

!0 = !{i32 1, !"wchar_size", i32 2}
!1 = !{i32 8, !"cf-protection-branch", i32 1}
!2 = !{i32 4, !"function_return_thunk_extern", i32 1}
!3 = !{i32 4, !"indirect_branch_cs_prefix", i32 1}
!4 = !{i32 4, !"SkipRaxSetup", i32 1}
